target datalayout = "e-m:e-p270:32:32-p271:32:32-p272:64:64-i64:64-i128:128-f80:128-n8:16:32:64-S128"
target triple = "x86_64-pc-linux-gnu"

%struct.strbuf = type { i64, i64, ptr }
%struct.discovery = type { ptr, ptr, ptr, i64, ptr, %struct.oid_array, i32, i8 }
%struct.oid_array = type { ptr, i64, i64, i32 }
%struct.rpc_state = type { ptr, ptr, ptr, ptr, ptr, ptr, ptr, i64, i64, i64, i32, i32, i32, i8 }

@.str.1 = private unnamed_addr constant [14 x i8] c"remote-curl.c\00", align 1
@url = internal global %struct.strbuf { i64 0, i64 0, ptr @strbuf_slopbuf }, align 8
@stdout = external global ptr, align 8
@.str.24 = private unnamed_addr constant [2 x i8] c"\0A\00", align 1
@.str.31 = private unnamed_addr constant [16 x i8] c"git-upload-pack\00", align 1
@.str.42 = private unnamed_addr constant [25 x i8] c"Git-Protocol: version=%d\00", align 1
@http_post_buffer = external global i64, align 8
@.str.75 = private unnamed_addr constant [5 x i8] c"%s%s\00", align 1
@.str.76 = private unnamed_addr constant [39 x i8] c"Content-Type: application/x-%s-request\00", align 1
@.str.77 = private unnamed_addr constant [32 x i8] c"Accept: application/x-%s-result\00", align 1
@.str.92 = private unnamed_addr constant [59 x i8] c"The entire rpc->buf should be larger than LARGE_PACKET_MAX\00", align 1
@__const.stateless_connect.buf = private unnamed_addr constant %struct.strbuf { i64 0, i64 0, ptr @strbuf_slopbuf }, align 8
@.str.153 = private unnamed_addr constant [19 x i8] c"git-upload-archive\00", align 1
@.str.154 = private unnamed_addr constant [10 x i8] c"fallback\0A\00", align 1
@.str.155 = private unnamed_addr constant [3 x i8] c"%s\00", align 1

; Function Attrs: nounwind uwtable
define internal i32 @get_protocol_http_header(i32 noundef %0, ptr noundef %1) #0 {
  %3 = alloca i32, align 4
  %4 = alloca i32, align 4
  %5 = alloca ptr, align 8
  store i32 %0, ptr %4, align 4, !tbaa !4
  store ptr %1, ptr %5, align 8, !tbaa !35
  %6 = load i32, ptr %4, align 4, !tbaa !4
  %7 = icmp sgt i32 %6, 0
  br i1 %7, label %8, label %11

8:                                                ; preds = %2
  %9 = load ptr, ptr %5, align 8, !tbaa !35
  %10 = load i32, ptr %4, align 4, !tbaa !4
  call void (ptr, ptr, ...) @strbuf_addf(ptr noundef %9, ptr noundef @.str.42, i32 noundef %10)
  store i32 1, ptr %3, align 4
  br label %12

11:                                               ; preds = %2
  store i32 0, ptr %3, align 4
  br label %12

12:                                               ; preds = %11, %8
  %13 = load i32, ptr %3, align 4
  ret i32 %13
}

; Function Attrs: nounwind uwtable
define internal i32 @stateless_connect(ptr noundef %0) #0 {
  %2 = alloca i32, align 4
  %3 = alloca ptr, align 8
  %4 = alloca ptr, align 8
  %5 = alloca %struct.rpc_state, align 8
  %6 = alloca %struct.strbuf, align 8
  %7 = alloca ptr, align 8
  %8 = alloca i32, align 4
  %9 = alloca i64, align 8
  %10 = alloca i32, align 4
  store ptr %0, ptr %3, align 8, !tbaa !18
  call void @llvm.lifetime.start.p0(i64 8, ptr %4) #10
  call void @llvm.lifetime.start.p0(i64 96, ptr %5) #10
  call void @llvm.memset.p0.i64(ptr align 8 %5, i8 0, i64 96, i1 false)
  call void @llvm.lifetime.start.p0(i64 24, ptr %6) #10
  call void @llvm.memcpy.p0.p0.i64(ptr align 8 %6, ptr align 8 @__const.stateless_connect.buf, i64 24, i1 false)
  call void @llvm.lifetime.start.p0(i64 8, ptr %7) #10
  %11 = load ptr, ptr %3, align 8, !tbaa !18
  %12 = call i32 @strcmp(ptr noundef %11, ptr noundef @.str.153) #12
  %13 = icmp ne i32 %12, 0
  br i1 %13, label %16, label %14

14:                                               ; preds = %1
  %15 = call ptr @discover_refs(ptr noundef @.str.31, i32 noundef 0)
  store ptr %15, ptr %4, align 8, !tbaa !49
  br label %19

16:                                               ; preds = %1
  %17 = load ptr, ptr %3, align 8, !tbaa !18
  %18 = call ptr @discover_refs(ptr noundef %17, i32 noundef 0)
  store ptr %18, ptr %4, align 8, !tbaa !49
  br label %19

19:                                               ; preds = %16, %14
  %20 = load ptr, ptr %4, align 8, !tbaa !49
  %21 = getelementptr inbounds nuw %struct.discovery, ptr %20, i32 0, i32 6
  %22 = load i32, ptr %21, align 8, !tbaa !60
  %23 = icmp ne i32 %22, 2
  br i1 %23, label %24, label %28

24:                                               ; preds = %19
  %25 = call i32 (ptr, ...) @printf(ptr noundef @.str.154)
  %26 = load ptr, ptr @stdout, align 8, !tbaa !30
  %27 = call i32 @fflush(ptr noundef %26)
  store i32 -1, ptr %2, align 4
  store i32 1, ptr %8, align 4
  br label %140

28:                                               ; preds = %19
  %29 = call i32 (ptr, ...) @printf(ptr noundef @.str.24)
  %30 = load ptr, ptr @stdout, align 8, !tbaa !30
  %31 = call i32 @fflush(ptr noundef %30)
  br label %32

32:                                               ; preds = %28
  %33 = call ptr @http_get_accept_language_header()
  store ptr %33, ptr %7, align 8, !tbaa !18
  %34 = load ptr, ptr %7, align 8, !tbaa !18
  %35 = icmp ne ptr %34, null
  br i1 %35, label %36, label %40

36:                                               ; preds = %32
  %37 = load ptr, ptr %7, align 8, !tbaa !18
  %38 = call ptr (ptr, ...) @xstrfmt(ptr noundef @.str.155, ptr noundef %37)
  %39 = getelementptr inbounds nuw %struct.rpc_state, ptr %5, i32 0, i32 4
  store ptr %38, ptr %39, align 8, !tbaa !61
  br label %40

40:                                               ; preds = %36, %32
  %41 = load ptr, ptr %3, align 8, !tbaa !18
  %42 = getelementptr inbounds nuw %struct.rpc_state, ptr %5, i32 0, i32 0
  store ptr %41, ptr %42, align 8, !tbaa !63
  %43 = load ptr, ptr getelementptr inbounds nuw (%struct.strbuf, ptr @url, i32 0, i32 2), align 8, !tbaa !28
  %44 = getelementptr inbounds nuw %struct.rpc_state, ptr %5, i32 0, i32 0
  %45 = load ptr, ptr %44, align 8, !tbaa !63
  %46 = call ptr (ptr, ...) @xstrfmt(ptr noundef @.str.75, ptr noundef %43, ptr noundef %45)
  %47 = getelementptr inbounds nuw %struct.rpc_state, ptr %5, i32 0, i32 1
  store ptr %46, ptr %47, align 8, !tbaa !64
  %48 = getelementptr inbounds nuw %struct.rpc_state, ptr %5, i32 0, i32 0
  %49 = load ptr, ptr %48, align 8, !tbaa !63
  %50 = call ptr (ptr, ...) @xstrfmt(ptr noundef @.str.76, ptr noundef %49)
  %51 = getelementptr inbounds nuw %struct.rpc_state, ptr %5, i32 0, i32 2
  store ptr %50, ptr %51, align 8, !tbaa !65
  %52 = getelementptr inbounds nuw %struct.rpc_state, ptr %5, i32 0, i32 0
  %53 = load ptr, ptr %52, align 8, !tbaa !63
  %54 = call ptr (ptr, ...) @xstrfmt(ptr noundef @.str.77, ptr noundef %53)
  %55 = getelementptr inbounds nuw %struct.rpc_state, ptr %5, i32 0, i32 3
  store ptr %54, ptr %55, align 8, !tbaa !66
  %56 = load ptr, ptr %4, align 8, !tbaa !49
  %57 = getelementptr inbounds nuw %struct.discovery, ptr %56, i32 0, i32 6
  %58 = load i32, ptr %57, align 8, !tbaa !60
  %59 = call i32 @get_protocol_http_header(i32 noundef %58, ptr noundef %6)
  %60 = icmp ne i32 %59, 0
  br i1 %60, label %61, label %64

61:                                               ; preds = %40
  %62 = call ptr @strbuf_detach(ptr noundef %6, ptr noundef null)
  %63 = getelementptr inbounds nuw %struct.rpc_state, ptr %5, i32 0, i32 5
  store ptr %62, ptr %63, align 8, !tbaa !67
  br label %66

64:                                               ; preds = %40
  %65 = getelementptr inbounds nuw %struct.rpc_state, ptr %5, i32 0, i32 5
  store ptr null, ptr %65, align 8, !tbaa !67
  call void @strbuf_release(ptr noundef %6)
  br label %66

66:                                               ; preds = %64, %61
  %67 = load i64, ptr @http_post_buffer, align 8, !tbaa !33
  %68 = call ptr @xmalloc(i64 noundef %67)
  %69 = getelementptr inbounds nuw %struct.rpc_state, ptr %5, i32 0, i32 6
  store ptr %68, ptr %69, align 8, !tbaa !68
  %70 = load i64, ptr @http_post_buffer, align 8, !tbaa !33
  %71 = getelementptr inbounds nuw %struct.rpc_state, ptr %5, i32 0, i32 7
  store i64 %70, ptr %71, align 8, !tbaa !69
  %72 = getelementptr inbounds nuw %struct.rpc_state, ptr %5, i32 0, i32 8
  store i64 0, ptr %72, align 8, !tbaa !70
  %73 = getelementptr inbounds nuw %struct.rpc_state, ptr %5, i32 0, i32 9
  store i64 0, ptr %73, align 8, !tbaa !71
  %74 = getelementptr inbounds nuw %struct.rpc_state, ptr %5, i32 0, i32 10
  store i32 1, ptr %74, align 8, !tbaa !72
  %75 = getelementptr inbounds nuw %struct.rpc_state, ptr %5, i32 0, i32 11
  store i32 0, ptr %75, align 4, !tbaa !73
  %76 = getelementptr inbounds nuw %struct.rpc_state, ptr %5, i32 0, i32 12
  store i32 0, ptr %76, align 8, !tbaa !74
  %77 = getelementptr inbounds nuw %struct.rpc_state, ptr %5, i32 0, i32 13
  %78 = load i8, ptr %77, align 4
  %79 = and i8 %78, -2
  %80 = or i8 %79, 1
  store i8 %80, ptr %77, align 4
  %81 = getelementptr inbounds nuw %struct.rpc_state, ptr %5, i32 0, i32 13
  %82 = load i8, ptr %81, align 4
  %83 = and i8 %82, -3
  %84 = or i8 %83, 0
  store i8 %84, ptr %81, align 4
  %85 = getelementptr inbounds nuw %struct.rpc_state, ptr %5, i32 0, i32 13
  %86 = load i8, ptr %85, align 4
  %87 = and i8 %86, -5
  %88 = or i8 %87, 4
  store i8 %88, ptr %85, align 4
  %89 = getelementptr inbounds nuw %struct.rpc_state, ptr %5, i32 0, i32 13
  %90 = load i8, ptr %89, align 4
  %91 = and i8 %90, -9
  %92 = or i8 %91, 0
  store i8 %92, ptr %89, align 4
  %93 = load ptr, ptr %3, align 8, !tbaa !18
  %94 = call i32 @strcmp(ptr noundef %93, ptr noundef @.str.153) #12
  %95 = icmp ne i32 %94, 0
  br i1 %95, label %96, label %105

96:                                               ; preds = %66
  %97 = getelementptr inbounds nuw %struct.rpc_state, ptr %5, i32 0, i32 10
  %98 = load i32, ptr %97, align 8, !tbaa !72
  %99 = load ptr, ptr %4, align 8, !tbaa !49
  %100 = getelementptr inbounds nuw %struct.discovery, ptr %99, i32 0, i32 2
  %101 = load ptr, ptr %100, align 8, !tbaa !75
  %102 = load ptr, ptr %4, align 8, !tbaa !49
  %103 = getelementptr inbounds nuw %struct.discovery, ptr %102, i32 0, i32 3
  %104 = load i64, ptr %103, align 8, !tbaa !76
  call void @write_or_die(i32 noundef %98, ptr noundef %101, i64 noundef %104)
  br label %105

105:                                              ; preds = %96, %66
  br label %106

106:                                              ; preds = %126, %105
  br label %107

107:                                              ; preds = %106
  call void @llvm.lifetime.start.p0(i64 8, ptr %9) #10
  call void @llvm.lifetime.start.p0(i64 4, ptr %10) #10
  %108 = call i32 @rpc_read_from_out(ptr noundef %5, i32 noundef 1, ptr noundef %9, ptr noundef %10)
  %109 = icmp ne i32 %108, 0
  br i1 %109, label %111, label %110

110:                                              ; preds = %107
  call void (ptr, i32, ptr, ...) @BUG_fl(ptr noundef @.str.1, i32 noundef 1529, ptr noundef @.str.92) #11
  unreachable

111:                                              ; preds = %107
  %112 = load i32, ptr %10, align 4, !tbaa !4
  %113 = icmp eq i32 %112, 0
  br i1 %113, label %114, label %115

114:                                              ; preds = %111
  store i32 3, ptr %8, align 4
  br label %124

115:                                              ; preds = %111
  %116 = load i32, ptr %10, align 4, !tbaa !4
  %117 = icmp eq i32 %116, 2
  %118 = zext i1 %117 to i32
  %119 = call i32 @post_rpc(ptr noundef %5, i32 noundef 1, i32 noundef %118)
  %120 = icmp ne i32 %119, 0
  br i1 %120, label %121, label %122

121:                                              ; preds = %115
  store i32 3, ptr %8, align 4
  br label %124

122:                                              ; preds = %115
  %123 = getelementptr inbounds nuw %struct.rpc_state, ptr %5, i32 0, i32 8
  store i64 0, ptr %123, align 8, !tbaa !70
  store i32 0, ptr %8, align 4
  br label %124

124:                                              ; preds = %122, %121, %114
  call void @llvm.lifetime.end.p0(i64 4, ptr %10) #10
  call void @llvm.lifetime.end.p0(i64 8, ptr %9) #10
  %125 = load i32, ptr %8, align 4
  switch i32 %125, label %142 [
    i32 0, label %126
    i32 3, label %127
  ]

126:                                              ; preds = %124
  br label %106

127:                                              ; preds = %124
  %128 = getelementptr inbounds nuw %struct.rpc_state, ptr %5, i32 0, i32 1
  %129 = load ptr, ptr %128, align 8, !tbaa !64
  call void @free(ptr noundef %129) #10
  %130 = getelementptr inbounds nuw %struct.rpc_state, ptr %5, i32 0, i32 2
  %131 = load ptr, ptr %130, align 8, !tbaa !65
  call void @free(ptr noundef %131) #10
  %132 = getelementptr inbounds nuw %struct.rpc_state, ptr %5, i32 0, i32 3
  %133 = load ptr, ptr %132, align 8, !tbaa !66
  call void @free(ptr noundef %133) #10
  %134 = getelementptr inbounds nuw %struct.rpc_state, ptr %5, i32 0, i32 4
  %135 = load ptr, ptr %134, align 8, !tbaa !61
  call void @free(ptr noundef %135) #10
  %136 = getelementptr inbounds nuw %struct.rpc_state, ptr %5, i32 0, i32 5
  %137 = load ptr, ptr %136, align 8, !tbaa !67
  call void @free(ptr noundef %137) #10
  %138 = getelementptr inbounds nuw %struct.rpc_state, ptr %5, i32 0, i32 6
  %139 = load ptr, ptr %138, align 8, !tbaa !68
  call void @free(ptr noundef %139) #10
  call void @strbuf_release(ptr noundef %6)
  store i32 0, ptr %2, align 4
  store i32 1, ptr %8, align 4
  br label %140

140:                                              ; preds = %127, %24
  call void @llvm.lifetime.end.p0(i64 8, ptr %7) #10
  call void @llvm.lifetime.end.p0(i64 24, ptr %6) #10
  call void @llvm.lifetime.end.p0(i64 96, ptr %5) #10
  call void @llvm.lifetime.end.p0(i64 8, ptr %4) #10
  %141 = load i32, ptr %2, align 4
  ret i32 %141

142:                                              ; preds = %124
  unreachable
}