; Function Attrs: nounwind uwtable
define internal fastcc range(i32 -1, 1) i32 @stateless_connect(ptr noundef %0) unnamed_addr #0 {
  %2 = alloca %struct.rpc_state, align 8
  %3 = alloca %struct.strbuf, align 8
  %4 = alloca i64, align 8
  %5 = alloca i32, align 4
  call void @llvm.lifetime.start.p0(i64 96, ptr nonnull %2) #17
  %6 = getelementptr inbounds nuw i8, ptr %2, i64 32
  call void @llvm.memset.p0.i64(ptr noundef nonnull align 8 dereferenceable(96) %6, i8 0, i64 64, i1 false)
  call void @llvm.lifetime.start.p0(i64 24, ptr nonnull %3) #17
  call void @llvm.memcpy.p0.p0.i64(ptr noundef nonnull align 8 dereferenceable(24) %3, ptr noundef nonnull align 8 dereferenceable(24) @__const.stateless_connect.buf, i64 24, i1 false)
  %7 = tail call i32 @strcmp(ptr noundef nonnull dereferenceable(1) %0, ptr noundef nonnull dereferenceable(19) @.str.153) #19
  %.not = icmp eq i32 %7, 0
  %.str.31. = select i1 %.not, ptr @.str.31, ptr %0
  %8 = tail call fastcc ptr @discover_refs(ptr noundef nonnull %.str.31., i32 noundef 0)
  %9 = getelementptr inbounds nuw i8, ptr %8, i64 72
  %10 = load i32, ptr %9, align 8, !tbaa !82
  %.not15 = icmp eq i32 %10, 2
  br i1 %.not15, label %14, label %11

11:                                               ; preds = %1
  %puts = tail call i32 @puts(ptr nonnull dereferenceable(1) @str.10)
  %12 = load ptr, ptr @stdout, align 8, !tbaa !29
  %13 = tail call i32 @fflush(ptr noundef %12)
  br label %72

14:                                               ; preds = %1
  %putchar = tail call i32 @putchar(i32 10)
  %15 = load ptr, ptr @stdout, align 8, !tbaa !29
  %16 = tail call i32 @fflush(ptr noundef %15)
  %17 = tail call ptr @http_get_accept_language_header() #17
  %.not16 = icmp eq ptr %17, null
  br i1 %.not16, label %21, label %18

18:                                               ; preds = %14
  %19 = tail call ptr (ptr, ...) @xstrfmt(ptr noundef nonnull @.str.155, ptr noundef nonnull %17) #17
  %20 = getelementptr inbounds nuw i8, ptr %2, i64 32
  store ptr %19, ptr %20, align 8, !tbaa !83
  br label %21

21:                                               ; preds = %18, %14
  store ptr %0, ptr %2, align 8, !tbaa !48
  %22 = load ptr, ptr getelementptr inbounds nuw (i8, ptr @url, i64 16), align 8, !tbaa !27
  %23 = tail call ptr (ptr, ...) @xstrfmt(ptr noundef nonnull @.str.75, ptr noundef %22, ptr noundef nonnull %0) #17
  %24 = getelementptr inbounds nuw i8, ptr %2, i64 8
  store ptr %23, ptr %24, align 8, !tbaa !84
  %25 = tail call ptr (ptr, ...) @xstrfmt(ptr noundef nonnull @.str.76, ptr noundef nonnull %0) #17
  %26 = getelementptr inbounds nuw i8, ptr %2, i64 16
  store ptr %25, ptr %26, align 8, !tbaa !85
  %27 = tail call ptr (ptr, ...) @xstrfmt(ptr noundef nonnull @.str.77, ptr noundef nonnull %0) #17
  %28 = getelementptr inbounds nuw i8, ptr %2, i64 24
  store ptr %27, ptr %28, align 8, !tbaa !86
  %29 = load i32, ptr %9, align 8, !tbaa !82
  %30 = icmp sgt i32 %29, 0
  br i1 %30, label %31, label %34

31:                                               ; preds = %21
  call void (ptr, ptr, ...) @strbuf_addf(ptr noundef nonnull %3, ptr noundef nonnull @.str.42, i32 noundef %29) #17
  %32 = call ptr @strbuf_detach(ptr noundef nonnull %3, ptr noundef null) #17
  %33 = getelementptr inbounds nuw i8, ptr %2, i64 40
  store ptr %32, ptr %33, align 8, !tbaa !87
  br label %36

34:                                               ; preds = %21
  %35 = getelementptr inbounds nuw i8, ptr %2, i64 40
  store ptr null, ptr %35, align 8, !tbaa !87
  call void @strbuf_release(ptr noundef nonnull %3) #17
  br label %36

36:                                               ; preds = %34, %31
  %37 = load i64, ptr @http_post_buffer, align 8, !tbaa !81
  %38 = call ptr @xmalloc(i64 noundef %37) #17
  %39 = getelementptr inbounds nuw i8, ptr %2, i64 48
  store ptr %38, ptr %39, align 8, !tbaa !88
  %40 = load i64, ptr @http_post_buffer, align 8, !tbaa !81
  %41 = getelementptr inbounds nuw i8, ptr %2, i64 56
  store i64 %40, ptr %41, align 8, !tbaa !89
  %42 = getelementptr inbounds nuw i8, ptr %2, i64 64
  %43 = getelementptr inbounds nuw i8, ptr %2, i64 80
  call void @llvm.memset.p0.i64(ptr noundef nonnull align 8 dereferenceable(16) %42, i8 0, i64 16, i1 false)
  store i32 1, ptr %43, align 8, !tbaa !90
  %44 = getelementptr inbounds nuw i8, ptr %2, i64 84
  store i32 0, ptr %44, align 4, !tbaa !91
  %45 = getelementptr inbounds nuw i8, ptr %2, i64 88
  store i32 0, ptr %45, align 8, !tbaa !92
  %46 = getelementptr inbounds nuw i8, ptr %2, i64 92
  store i8 5, ptr %46, align 4
  %47 = call i32 @strcmp(ptr noundef nonnull dereferenceable(1) %0, ptr noundef nonnull dereferenceable(19) @.str.153) #19
  %.not18 = icmp eq i32 %47, 0
  br i1 %.not18, label %53, label %48

48:                                               ; preds = %36
  %49 = getelementptr inbounds nuw i8, ptr %8, i64 16
  %50 = load ptr, ptr %49, align 8, !tbaa !93
  %51 = getelementptr inbounds nuw i8, ptr %8, i64 24
  %52 = load i64, ptr %51, align 8, !tbaa !94
  call void @write_or_die(i32 noundef 1, ptr noundef %50, i64 noundef %52) #17
  br label %53

53:                                               ; preds = %48, %36
  call void @llvm.lifetime.start.p0(i64 8, ptr nonnull %4) #17
  call void @llvm.lifetime.start.p0(i64 4, ptr nonnull %5) #17
  %54 = call fastcc i32 @rpc_read_from_out(ptr noundef nonnull %2, i32 noundef 1, ptr noundef %4, ptr noundef %5)
  %.not1925 = icmp eq i32 %54, 0
  br i1 %.not1925, label %._crit_edge, label %.lr.ph

._crit_edge:                                      ; preds = %61, %53
  call void (ptr, i32, ptr, ...) @BUG_fl(ptr noundef nonnull @.str.1, i32 noundef 1529, ptr noundef nonnull @.str.92) #18
  unreachable

.lr.ph:                                           ; preds = %53, %61
  %55 = load i32, ptr %5, align 4, !tbaa !4
  %56 = icmp eq i32 %55, 0
  br i1 %56, label %63, label %57

57:                                               ; preds = %.lr.ph
  %58 = icmp eq i32 %55, 2
  %59 = zext i1 %58 to i32
  %60 = call fastcc i32 @post_rpc(ptr noundef %2, i32 noundef 1, i32 noundef %59)
  %.not20 = icmp eq i32 %60, 0
  br i1 %.not20, label %61, label %63

61:                                               ; preds = %57
  store i64 0, ptr %42, align 8, !tbaa !95
  call void @llvm.lifetime.end.p0(i64 4, ptr nonnull %5) #17
  call void @llvm.lifetime.end.p0(i64 8, ptr nonnull %4) #17
  call void @llvm.lifetime.start.p0(i64 8, ptr nonnull %4) #17
  call void @llvm.lifetime.start.p0(i64 4, ptr nonnull %5) #17
  %62 = call fastcc i32 @rpc_read_from_out(ptr noundef nonnull %2, i32 noundef 1, ptr noundef %4, ptr noundef %5)
  %.not19 = icmp eq i32 %62, 0
  br i1 %.not19, label %._crit_edge, label %.lr.ph

63:                                               ; preds = %.lr.ph, %57
  call void @llvm.lifetime.end.p0(i64 4, ptr nonnull %5) #17
  call void @llvm.lifetime.end.p0(i64 8, ptr nonnull %4) #17
  %64 = load ptr, ptr %24, align 8, !tbaa !84
  call void @free(ptr noundef %64) #17
  %65 = load ptr, ptr %26, align 8, !tbaa !85
  call void @free(ptr noundef %65) #17
  %66 = load ptr, ptr %28, align 8, !tbaa !86
  call void @free(ptr noundef %66) #17
  %67 = getelementptr inbounds nuw i8, ptr %2, i64 32
  %68 = load ptr, ptr %67, align 8, !tbaa !83
  call void @free(ptr noundef %68) #17
  %69 = getelementptr inbounds nuw i8, ptr %2, i64 40
  %70 = load ptr, ptr %69, align 8, !tbaa !87
  call void @free(ptr noundef %70) #17
  %71 = load ptr, ptr %39, align 8, !tbaa !88
  call void @free(ptr noundef %71) #17
  call void @strbuf_release(ptr noundef nonnull %3) #17
  br label %72

72:                                               ; preds = %63, %11
  %.011 = phi i32 [ -1, %11 ], [ 0, %63 ]
  call void @llvm.lifetime.end.p0(i64 24, ptr nonnull %3) #17
  call void @llvm.lifetime.end.p0(i64 96, ptr nonnull %2) #17
  ret i32 %.011
}